target datalayout = "e-m:e-p270:32:32-p271:32:32-p272:64:64-i64:64-i128:128-f80:128-n8:16:32:64-S128"
target triple = "x86_64-pc-linux-gnu"

%"class.GraphBuilder::ScopeData" = type <{ ptr, ptr, ptr, i8, [7 x i8], ptr, ptr, i64, i32, [4 x i8], ptr, i8, [3 x i8], i32, i32, [4 x i8], ptr, ptr, i32, [4 x i8], ptr, ptr, ptr, i8, [7 x i8] }>

; Function Attrs: mustprogress nounwind uwtable
define linkonce_odr hidden noundef ptr @_ZNK12GraphBuilder9ScopeData6parentEv(ptr noundef nonnull align 8 dereferenceable(137) %0) #1 comdat align 2 {
  %2 = alloca ptr, align 8
  store ptr %0, ptr %2, align 8
  %3 = load ptr, ptr %2, align 8
  %4 = getelementptr inbounds %"class.GraphBuilder::ScopeData", ptr %3, i32 0, i32 0
  %5 = load ptr, ptr %4, align 8
  ret ptr %5
}

; Function Attrs: mustprogress nounwind uwtable
define linkonce_odr hidden noundef zeroext i1 @_ZNK12GraphBuilder9ScopeData11parsing_jsrEv(ptr noundef nonnull align 8 dereferenceable(137) %0) #1 comdat align 2 {
  %2 = alloca ptr, align 8
  store ptr %0, ptr %2, align 8
  %3 = load ptr, ptr %2, align 8
  %4 = getelementptr inbounds %"class.GraphBuilder::ScopeData", ptr %3, i32 0, i32 11
  %5 = load i8, ptr %4, align 8
  %6 = trunc i8 %5 to i1
  ret i1 %6
}

; Function Attrs: mustprogress nounwind uwtable
define hidden void @_ZN12GraphBuilder9ScopeData16incr_num_returnsEv(ptr noundef nonnull align 8 dereferenceable(137) %0) #1 align 2 {
  %2 = alloca ptr, align 8
  store ptr %0, ptr %2, align 8
  %3 = load ptr, ptr %2, align 8
  %4 = call noundef zeroext i1 @_ZNK12GraphBuilder9ScopeData11parsing_jsrEv(ptr noundef nonnull align 8 dereferenceable(137) %3)
  br i1 %4, label %5, label %7

5:                                                ; preds = %1
  %6 = call noundef ptr @_ZNK12GraphBuilder9ScopeData6parentEv(ptr noundef nonnull align 8 dereferenceable(137) %3)
  call void @_ZN12GraphBuilder9ScopeData16incr_num_returnsEv(ptr noundef nonnull align 8 dereferenceable(137) %6)
  br label %11

7:                                                ; preds = %1
  %8 = getelementptr inbounds %"class.GraphBuilder::ScopeData", ptr %3, i32 0, i32 18
  %9 = load i32, ptr %8, align 8
  %10 = add nsw i32 %9, 1
  store i32 %10, ptr %8, align 8
  br label %11

11:                                               ; preds = %7, %5
  ret void
}