; Function Attrs: mustprogress nofree norecurse nosync nounwind memory(readwrite, inaccessiblemem: none) uwtable
define hidden void @_ZN12GraphBuilder9ScopeData16incr_num_returnsEv(ptr nocapture noundef nonnull align 8 dereferenceable(137) %0) local_unnamed_addr #7 align 2 {
  %2 = getelementptr inbounds i8, ptr %0, i64 72
  %3 = load i8, ptr %2, align 8
  %4 = trunc i8 %3 to i1
  br i1 %4, label %tailrecurse, label %tailrecurse._crit_edge

tailrecurse:                                      ; preds = %1, %tailrecurse
  %.tr1 = phi ptr [ %5, %tailrecurse ], [ %0, %1 ]
  %5 = load ptr, ptr %.tr1, align 8
  %6 = getelementptr inbounds i8, ptr %5, i64 72
  %7 = load i8, ptr %6, align 8
  %8 = trunc i8 %7 to i1
  br i1 %8, label %tailrecurse, label %tailrecurse._crit_edge

tailrecurse._crit_edge:                           ; preds = %tailrecurse, %1
  %.tr.lcssa = phi ptr [ %0, %1 ], [ %5, %tailrecurse ]
  %9 = getelementptr inbounds i8, ptr %.tr.lcssa, i64 104
  %10 = load i32, ptr %9, align 8
  %11 = add nsw i32 %10, 1
  store i32 %11, ptr %9, align 8
  ret void
}